target datalayout = "e-m:e-p270:32:32-p271:32:32-p272:64:64-i64:64-i128:128-f80:128-n8:16:32:64-S128"
target triple = "x86_64-pc-linux-gnu"

%"class.icu_77::IteratedChar" = type <{ i32, i32, i32, i8, i8, [2 x i8] }>
%"class.icu_77::InputText" = type <{ ptr, i32, [4 x i8], ptr, i8, [7 x i8], ptr, ptr, i32, [4 x i8] }>

; Function Attrs: mustprogress nounwind uwtable
define noundef i32 @_ZN6icu_7712IteratedChar8nextByteEPNS_9InputTextE(ptr noundef nonnull align 4 dereferenceable(14) %0, ptr noundef %1) #0 align 2 {
  %3 = alloca i32, align 4
  %4 = alloca ptr, align 8
  %5 = alloca ptr, align 8
  store ptr %0, ptr %4, align 8, !tbaa !3
  store ptr %1, ptr %5, align 8, !tbaa !15
  %6 = load ptr, ptr %4, align 8
  %7 = getelementptr inbounds nuw %"class.icu_77::IteratedChar", ptr %6, i32 0, i32 2
  %8 = load i32, ptr %7, align 4, !tbaa !12
  %9 = load ptr, ptr %5, align 8, !tbaa !15
  %10 = getelementptr inbounds nuw %"class.icu_77::InputText", ptr %9, i32 0, i32 8
  %11 = load i32, ptr %10, align 8, !tbaa !17
  %12 = icmp sge i32 %8, %11
  br i1 %12, label %13, label %15

13:                                               ; preds = %2
  %14 = getelementptr inbounds nuw %"class.icu_77::IteratedChar", ptr %6, i32 0, i32 4
  store i8 1, ptr %14, align 1, !tbaa !14
  store i32 -1, ptr %3, align 4
  br label %26

15:                                               ; preds = %2
  %16 = load ptr, ptr %5, align 8, !tbaa !15
  %17 = getelementptr inbounds nuw %"class.icu_77::InputText", ptr %16, i32 0, i32 7
  %18 = load ptr, ptr %17, align 8, !tbaa !21
  %19 = getelementptr inbounds nuw %"class.icu_77::IteratedChar", ptr %6, i32 0, i32 2
  %20 = load i32, ptr %19, align 4, !tbaa !12
  %21 = add nsw i32 %20, 1
  store i32 %21, ptr %19, align 4, !tbaa !12
  %22 = sext i32 %20 to i64
  %23 = getelementptr inbounds i8, ptr %18, i64 %22
  %24 = load i8, ptr %23, align 1, !tbaa !22
  %25 = zext i8 %24 to i32
  store i32 %25, ptr %3, align 4
  br label %26

26:                                               ; preds = %15, %13
  %27 = load i32, ptr %3, align 4
  ret i32 %27
}

; Function Attrs: mustprogress nounwind uwtable
define noundef signext i8 @_ZNK6icu_7721CharsetRecog_gb_180308nextCharEPNS_12IteratedCharEPNS_9InputTextE(ptr noundef nonnull align 8 dereferenceable(8) %0, ptr noundef %1, ptr noundef %2) unnamed_addr #0 align 2 {
  %4 = alloca i8, align 1
  %5 = alloca ptr, align 8
  %6 = alloca ptr, align 8
  %7 = alloca ptr, align 8
  %8 = alloca i32, align 4
  %9 = alloca i32, align 4
  %10 = alloca i32, align 4
  %11 = alloca i32, align 4
  %12 = alloca i32, align 4
  store ptr %0, ptr %5, align 8, !tbaa !48
  store ptr %1, ptr %6, align 8, !tbaa !3
  store ptr %2, ptr %7, align 8, !tbaa !15
  call void @llvm.lifetime.start.p0(i64 4, ptr %8) #7
  store i32 0, ptr %8, align 4, !tbaa !26
  call void @llvm.lifetime.start.p0(i64 4, ptr %9) #7
  store i32 0, ptr %9, align 4, !tbaa !26
  call void @llvm.lifetime.start.p0(i64 4, ptr %10) #7
  store i32 0, ptr %10, align 4, !tbaa !26
  call void @llvm.lifetime.start.p0(i64 4, ptr %11) #7
  store i32 0, ptr %11, align 4, !tbaa !26
  %13 = load ptr, ptr %6, align 8, !tbaa !3
  %14 = getelementptr inbounds nuw %"class.icu_77::IteratedChar", ptr %13, i32 0, i32 2
  %15 = load i32, ptr %14, align 4, !tbaa !12
  %16 = load ptr, ptr %6, align 8, !tbaa !3
  %17 = getelementptr inbounds nuw %"class.icu_77::IteratedChar", ptr %16, i32 0, i32 1
  store i32 %15, ptr %17, align 4, !tbaa !11
  %18 = load ptr, ptr %6, align 8, !tbaa !3
  %19 = getelementptr inbounds nuw %"class.icu_77::IteratedChar", ptr %18, i32 0, i32 3
  store i8 0, ptr %19, align 4, !tbaa !13
  %20 = load ptr, ptr %6, align 8, !tbaa !3
  %21 = load ptr, ptr %7, align 8, !tbaa !15
  %22 = call noundef i32 @_ZN6icu_7712IteratedChar8nextByteEPNS_9InputTextE(ptr noundef nonnull align 4 dereferenceable(14) %20, ptr noundef %21)
  %23 = load ptr, ptr %6, align 8, !tbaa !3
  %24 = getelementptr inbounds nuw %"class.icu_77::IteratedChar", ptr %23, i32 0, i32 0
  store i32 %22, ptr %24, align 4, !tbaa !8
  store i32 %22, ptr %8, align 4, !tbaa !26
  %25 = load i32, ptr %8, align 4, !tbaa !26
  %26 = icmp slt i32 %25, 0
  br i1 %26, label %27, label %28

27:                                               ; preds = %3
  store i8 0, ptr %4, align 1
  store i32 1, ptr %12, align 4
  br label %108

28:                                               ; preds = %3
  %29 = load i32, ptr %8, align 4, !tbaa !26
  %30 = icmp sle i32 %29, 128
  br i1 %30, label %31, label %32

31:                                               ; preds = %28
  store i8 1, ptr %4, align 1
  store i32 1, ptr %12, align 4
  br label %108

32:                                               ; preds = %28
  %33 = load ptr, ptr %6, align 8, !tbaa !3
  %34 = load ptr, ptr %7, align 8, !tbaa !15
  %35 = call noundef i32 @_ZN6icu_7712IteratedChar8nextByteEPNS_9InputTextE(ptr noundef nonnull align 4 dereferenceable(14) %33, ptr noundef %34)
  store i32 %35, ptr %9, align 4, !tbaa !26
  %36 = load i32, ptr %9, align 4, !tbaa !26
  %37 = icmp sge i32 %36, 0
  br i1 %37, label %38, label %47

38:                                               ; preds = %32
  %39 = load ptr, ptr %6, align 8, !tbaa !3
  %40 = getelementptr inbounds nuw %"class.icu_77::IteratedChar", ptr %39, i32 0, i32 0
  %41 = load i32, ptr %40, align 4, !tbaa !8
  %42 = shl i32 %41, 8
  %43 = load i32, ptr %9, align 4, !tbaa !26
  %44 = or i32 %42, %43
  %45 = load ptr, ptr %6, align 8, !tbaa !3
  %46 = getelementptr inbounds nuw %"class.icu_77::IteratedChar", ptr %45, i32 0, i32 0
  store i32 %44, ptr %46, align 4, !tbaa !8
  br label %47

47:                                               ; preds = %38, %32
  %48 = load i32, ptr %8, align 4, !tbaa !26
  %49 = icmp sge i32 %48, 129
  br i1 %49, label %50, label %107

50:                                               ; preds = %47
  %51 = load i32, ptr %8, align 4, !tbaa !26
  %52 = icmp sle i32 %51, 254
  br i1 %52, label %53, label %107

53:                                               ; preds = %50
  %54 = load i32, ptr %9, align 4, !tbaa !26
  %55 = icmp sge i32 %54, 64
  br i1 %55, label %56, label %59

56:                                               ; preds = %53
  %57 = load i32, ptr %9, align 4, !tbaa !26
  %58 = icmp sle i32 %57, 126
  br i1 %58, label %65, label %59

59:                                               ; preds = %56, %53
  %60 = load i32, ptr %9, align 4, !tbaa !26
  %61 = icmp sge i32 %60, 80
  br i1 %61, label %62, label %66

62:                                               ; preds = %59
  %63 = load i32, ptr %9, align 4, !tbaa !26
  %64 = icmp sle i32 %63, 254
  br i1 %64, label %65, label %66

65:                                               ; preds = %62, %56
  store i8 1, ptr %4, align 1
  store i32 1, ptr %12, align 4
  br label %108

66:                                               ; preds = %62, %59
  %67 = load i32, ptr %9, align 4, !tbaa !26
  %68 = icmp sge i32 %67, 48
  br i1 %68, label %69, label %104

69:                                               ; preds = %66
  %70 = load i32, ptr %9, align 4, !tbaa !26
  %71 = icmp sle i32 %70, 57
  br i1 %71, label %72, label %104

72:                                               ; preds = %69
  %73 = load ptr, ptr %6, align 8, !tbaa !3
  %74 = load ptr, ptr %7, align 8, !tbaa !15
  %75 = call noundef i32 @_ZN6icu_7712IteratedChar8nextByteEPNS_9InputTextE(ptr noundef nonnull align 4 dereferenceable(14) %73, ptr noundef %74)
  store i32 %75, ptr %10, align 4, !tbaa !26
  %76 = load i32, ptr %10, align 4, !tbaa !26
  %77 = icmp sge i32 %76, 129
  br i1 %77, label %78, label %103

78:                                               ; preds = %72
  %79 = load i32, ptr %10, align 4, !tbaa !26
  %80 = icmp sle i32 %79, 254
  br i1 %80, label %81, label %103

81:                                               ; preds = %78
  %82 = load ptr, ptr %6, align 8, !tbaa !3
  %83 = load ptr, ptr %7, align 8, !tbaa !15
  %84 = call noundef i32 @_ZN6icu_7712IteratedChar8nextByteEPNS_9InputTextE(ptr noundef nonnull align 4 dereferenceable(14) %82, ptr noundef %83)
  store i32 %84, ptr %11, align 4, !tbaa !26
  %85 = load i32, ptr %11, align 4, !tbaa !26
  %86 = icmp sge i32 %85, 48
  br i1 %86, label %87, label %102

87:                                               ; preds = %81
  %88 = load i32, ptr %11, align 4, !tbaa !26
  %89 = icmp sle i32 %88, 57
  br i1 %89, label %90, label %102

90:                                               ; preds = %87
  %91 = load ptr, ptr %6, align 8, !tbaa !3
  %92 = getelementptr inbounds nuw %"class.icu_77::IteratedChar", ptr %91, i32 0, i32 0
  %93 = load i32, ptr %92, align 4, !tbaa !8
  %94 = shl i32 %93, 16
  %95 = load i32, ptr %10, align 4, !tbaa !26
  %96 = shl i32 %95, 8
  %97 = or i32 %94, %96
  %98 = load i32, ptr %11, align 4, !tbaa !26
  %99 = or i32 %97, %98
  %100 = load ptr, ptr %6, align 8, !tbaa !3
  %101 = getelementptr inbounds nuw %"class.icu_77::IteratedChar", ptr %100, i32 0, i32 0
  store i32 %99, ptr %101, align 4, !tbaa !8
  store i8 1, ptr %4, align 1
  store i32 1, ptr %12, align 4
  br label %108

102:                                              ; preds = %87, %81
  br label %103

103:                                              ; preds = %102, %78, %72
  br label %104

104:                                              ; preds = %103, %69, %66
  %105 = load ptr, ptr %6, align 8, !tbaa !3
  %106 = getelementptr inbounds nuw %"class.icu_77::IteratedChar", ptr %105, i32 0, i32 3
  store i8 1, ptr %106, align 4, !tbaa !13
  br label %107

107:                                              ; preds = %104, %50, %47
  store i8 1, ptr %4, align 1
  store i32 1, ptr %12, align 4
  br label %108

108:                                              ; preds = %107, %90, %65, %31, %27
  call void @llvm.lifetime.end.p0(i64 4, ptr %11) #7
  call void @llvm.lifetime.end.p0(i64 4, ptr %10) #7
  call void @llvm.lifetime.end.p0(i64 4, ptr %9) #7
  call void @llvm.lifetime.end.p0(i64 4, ptr %8) #7
  %109 = load i8, ptr %4, align 1
  ret i8 %109
}