; Function Attrs: mustprogress nofree norecurse nosync nounwind willreturn memory(read, argmem: readwrite, inaccessiblemem: none) uwtable
define noundef signext range(i8 0, 2) i8 @_ZNK6icu_7721CharsetRecog_gb_180308nextCharEPNS_12IteratedCharEPNS_9InputTextE(ptr nonnull readnone align 8 captures(none) %0, ptr noundef captures(none) initializes((0, 8), (12, 13)) %1, ptr noundef readonly captures(none) %2) unnamed_addr #1 align 2 {
  %4 = getelementptr inbounds nuw i8, ptr %1, i64 8
  %5 = load i32, ptr %4, align 4, !tbaa !9
  %6 = getelementptr inbounds nuw i8, ptr %1, i64 4
  store i32 %5, ptr %6, align 4, !tbaa !8
  %7 = getelementptr inbounds nuw i8, ptr %1, i64 12
  store i8 0, ptr %7, align 4, !tbaa !10
  %8 = getelementptr inbounds nuw i8, ptr %2, i64 48
  %9 = load i32, ptr %8, align 8, !tbaa !12
  %.not.i = icmp slt i32 %5, %9
  br i1 %.not.i, label %_ZN6icu_7712IteratedChar8nextByteEPNS_9InputTextE.exit, label %_ZN6icu_7712IteratedChar8nextByteEPNS_9InputTextE.exit.thread

_ZN6icu_7712IteratedChar8nextByteEPNS_9InputTextE.exit.thread: ; preds = %3
  %10 = getelementptr inbounds nuw i8, ptr %1, i64 13
  store i8 1, ptr %10, align 1, !tbaa !11
  store i32 -1, ptr %1, align 4, !tbaa !3
  br label %56

_ZN6icu_7712IteratedChar8nextByteEPNS_9InputTextE.exit: ; preds = %3
  %11 = getelementptr inbounds nuw i8, ptr %2, i64 40
  %12 = load ptr, ptr %11, align 8, !tbaa !17
  %13 = add nsw i32 %5, 1
  store i32 %13, ptr %4, align 4, !tbaa !9
  %14 = sext i32 %5 to i64
  %15 = getelementptr inbounds i8, ptr %12, i64 %14
  %16 = load i8, ptr %15, align 1, !tbaa !18
  %17 = zext i8 %16 to i32
  store i32 %17, ptr %1, align 4, !tbaa !3
  %18 = icmp ult i8 %16, -127
  br i1 %18, label %56, label %19

19:                                               ; preds = %_ZN6icu_7712IteratedChar8nextByteEPNS_9InputTextE.exit
  %.not.i50 = icmp slt i32 %13, %9
  br i1 %.not.i50, label %21, label %_ZN6icu_7712IteratedChar8nextByteEPNS_9InputTextE.exit52

_ZN6icu_7712IteratedChar8nextByteEPNS_9InputTextE.exit52: ; preds = %19
  %20 = getelementptr inbounds nuw i8, ptr %1, i64 13
  store i8 1, ptr %20, align 1, !tbaa !11
  br label %29

21:                                               ; preds = %19
  %22 = add nsw i32 %5, 2
  store i32 %22, ptr %4, align 4, !tbaa !9
  %23 = sext i32 %13 to i64
  %24 = getelementptr inbounds i8, ptr %12, i64 %23
  %25 = load i8, ptr %24, align 1, !tbaa !18
  %26 = zext i8 %25 to i32
  %27 = shl nuw nsw i32 %17, 8
  %28 = or disjoint i32 %27, %26
  store i32 %28, ptr %1, align 4, !tbaa !3
  br label %29

29:                                               ; preds = %_ZN6icu_7712IteratedChar8nextByteEPNS_9InputTextE.exit52, %21
  %30 = phi i32 [ %28, %21 ], [ %17, %_ZN6icu_7712IteratedChar8nextByteEPNS_9InputTextE.exit52 ]
  %31 = phi i32 [ %22, %21 ], [ %13, %_ZN6icu_7712IteratedChar8nextByteEPNS_9InputTextE.exit52 ]
  %.0.i5161 = phi i32 [ %26, %21 ], [ -1, %_ZN6icu_7712IteratedChar8nextByteEPNS_9InputTextE.exit52 ]
  %.not = icmp eq i8 %16, -1
  %32 = add nsw i32 %.0.i5161, -64
  %or.cond = icmp ult i32 %32, 191
  %or.cond67 = select i1 %.not, i1 true, i1 %or.cond
  br i1 %or.cond67, label %56, label %33

33:                                               ; preds = %29
  %34 = add nsw i32 %.0.i5161, -48
  %or.cond7 = icmp ult i32 %34, 10
  br i1 %or.cond7, label %35, label %55

35:                                               ; preds = %33
  %.not.i53 = icmp slt i32 %31, %9
  br i1 %.not.i53, label %_ZN6icu_7712IteratedChar8nextByteEPNS_9InputTextE.exit55, label %.sink.split

_ZN6icu_7712IteratedChar8nextByteEPNS_9InputTextE.exit55: ; preds = %35
  %36 = add nsw i32 %31, 1
  store i32 %36, ptr %4, align 4, !tbaa !9
  %37 = sext i32 %31 to i64
  %38 = getelementptr inbounds i8, ptr %12, i64 %37
  %39 = load i8, ptr %38, align 1, !tbaa !18
  %40 = zext i8 %39 to i32
  %41 = add i8 %39, 127
  %or.cond9 = icmp ult i8 %41, 126
  br i1 %or.cond9, label %42, label %55

42:                                               ; preds = %_ZN6icu_7712IteratedChar8nextByteEPNS_9InputTextE.exit55
  %.not.i56 = icmp slt i32 %36, %9
  br i1 %.not.i56, label %_ZN6icu_7712IteratedChar8nextByteEPNS_9InputTextE.exit58, label %.sink.split

_ZN6icu_7712IteratedChar8nextByteEPNS_9InputTextE.exit58: ; preds = %42
  %43 = add nsw i32 %31, 2
  store i32 %43, ptr %4, align 4, !tbaa !9
  %44 = sext i32 %36 to i64
  %45 = getelementptr inbounds i8, ptr %12, i64 %44
  %46 = load i8, ptr %45, align 1, !tbaa !18
  %47 = add i8 %46, -48
  %or.cond11 = icmp ult i8 %47, 10
  br i1 %or.cond11, label %48, label %55

48:                                               ; preds = %_ZN6icu_7712IteratedChar8nextByteEPNS_9InputTextE.exit58
  %49 = zext nneg i8 %46 to i32
  %50 = shl nuw i32 %30, 16
  %51 = shl nuw nsw i32 %40, 8
  %52 = or disjoint i32 %51, %49
  %53 = or disjoint i32 %52, %50
  store i32 %53, ptr %1, align 4, !tbaa !3
  br label %56

.sink.split:                                      ; preds = %42, %35
  %54 = getelementptr inbounds nuw i8, ptr %1, i64 13
  store i8 1, ptr %54, align 1, !tbaa !11
  br label %55

55:                                               ; preds = %.sink.split, %_ZN6icu_7712IteratedChar8nextByteEPNS_9InputTextE.exit55, %_ZN6icu_7712IteratedChar8nextByteEPNS_9InputTextE.exit58, %33
  store i8 1, ptr %7, align 4, !tbaa !10
  br label %56

56:                                               ; preds = %_ZN6icu_7712IteratedChar8nextByteEPNS_9InputTextE.exit.thread, %29, %55, %_ZN6icu_7712IteratedChar8nextByteEPNS_9InputTextE.exit, %48
  %.0 = phi i8 [ 1, %48 ], [ 1, %_ZN6icu_7712IteratedChar8nextByteEPNS_9InputTextE.exit ], [ 1, %55 ], [ 1, %29 ], [ 0, %_ZN6icu_7712IteratedChar8nextByteEPNS_9InputTextE.exit.thread ]
  ret i8 %.0
}